target datalayout = "e-m:e-p270:32:32-p271:32:32-p272:64:64-i64:64-i128:128-f80:128-n8:16:32:64-S128"
target triple = "x86_64-pc-linux-gnu"

%struct.lua_State = type { %struct.GCRef, i8, i8, i8, i8, %struct.MRef, %struct.GCRef, ptr, ptr, %struct.MRef, %struct.MRef, %struct.GCRef, %struct.GCRef, ptr, i32 }
%struct.MRef = type { i64 }
%struct.GCRef = type { i64 }
%union.TValue = type { i64 }
%struct.CTState = type { ptr, i32, i32, ptr, ptr, ptr, %struct.CCallback, [128 x i16] }
%struct.CCallback = type { [8 x %union.FPRCBArg], [8 x i64], ptr, ptr, ptr, i32, i32, i32 }
%union.FPRCBArg = type { double }
%struct.global_State = type { ptr, ptr, %struct.GCState, %struct.GCstr, i8, i8, i8, i8, %struct.StrInternState, i32, %struct.GCRef, %struct.SBuf, %union.TValue, %union.TValue, %struct.Node, %union.TValue, %struct.GCupval, i32, i32, ptr, ptr, ptr, i32, i32, %struct.GCRef, %struct.MRef, %struct.MRef, %struct.PRNGState, [39 x %struct.GCRef] }
%struct.GCState = type { i64, i64, i8, i8, i8, i8, i32, %struct.GCRef, %struct.MRef, %struct.GCRef, %struct.GCRef, %struct.GCRef, %struct.GCRef, i64, i64, i32, i32, %struct.MRef }
%struct.GCstr = type { %struct.GCRef, i8, i8, i8, i8, i32, i32, i32 }
%struct.StrInternState = type { ptr, i32, i32, i32, i8, i8, i8, i8, i64 }
%struct.SBuf = type { ptr, ptr, ptr, %struct.MRef }
%struct.Node = type { %union.TValue, %union.TValue, %struct.MRef }
%struct.GCupval = type { %struct.GCRef, i8, i8, i8, i8, %union.anon, %struct.MRef, i32 }
%union.anon = type { %struct.anon.1 }
%struct.anon.1 = type { %struct.GCRef, %struct.GCRef }
%struct.PRNGState = type { [4 x i64] }
%struct.GCcdata = type { %struct.GCRef, i8, i8, i16 }
%struct.CType = type { i32, i32, i16, i16, %struct.GCRef }
%struct.GCudata = type { %struct.GCRef, i8, i8, i8, i8, %struct.GCRef, i32, %struct.GCRef, i32 }

; Function Attrs: alwaysinline nounwind uwtable
define internal i32 @ctype_check(ptr noundef %0, i32 noundef %1) #3 {
  %3 = alloca ptr, align 8
  %4 = alloca i32, align 4
  store ptr %0, ptr %3, align 8, !tbaa !9
  store i32 %1, ptr %4, align 4, !tbaa !34
  %5 = load i32, ptr %4, align 4, !tbaa !34
  ret i32 %5
}

; Function Attrs: alwaysinline nounwind uwtable
define internal ptr @ctype_child(ptr noundef %0, ptr noundef %1) #3 {
  %3 = alloca ptr, align 8
  %4 = alloca ptr, align 8
  store ptr %0, ptr %3, align 8, !tbaa !9
  store ptr %1, ptr %4, align 8, !tbaa !38
  %5 = load ptr, ptr %3, align 8, !tbaa !9
  %6 = load ptr, ptr %4, align 8, !tbaa !38
  %7 = getelementptr inbounds nuw %struct.CType, ptr %6, i32 0, i32 0
  %8 = load i32, ptr %7, align 8, !tbaa !55
  %9 = and i32 %8, 65535
  %10 = call ptr @ctype_get(ptr noundef %5, i32 noundef %9)
  ret ptr %10
}

; Function Attrs: alwaysinline nounwind uwtable
define internal ptr @ctype_get(ptr noundef %0, i32 noundef %1) #3 {
  %3 = alloca ptr, align 8
  %4 = alloca i32, align 4
  store ptr %0, ptr %3, align 8, !tbaa !9
  store i32 %1, ptr %4, align 4, !tbaa !34
  %5 = load ptr, ptr %3, align 8, !tbaa !9
  %6 = getelementptr inbounds nuw %struct.CTState, ptr %5, i32 0, i32 0
  %7 = load ptr, ptr %6, align 8, !tbaa !60
  %8 = load ptr, ptr %3, align 8, !tbaa !9
  %9 = load i32, ptr %4, align 4, !tbaa !34
  %10 = call i32 @ctype_check(ptr noundef %8, i32 noundef %9)
  %11 = zext i32 %10 to i64
  %12 = getelementptr inbounds nuw %struct.CType, ptr %7, i64 %11
  ret ptr %12
}

; Function Attrs: alwaysinline nounwind uwtable
define internal ptr @ctype_cts(ptr noundef %0) #3 {
  %2 = alloca ptr, align 8
  %3 = alloca ptr, align 8
  store ptr %0, ptr %2, align 8, !tbaa !4
  call void @llvm.lifetime.start.p0(i64 8, ptr %3) #10
  %4 = load ptr, ptr %2, align 8, !tbaa !4
  %5 = getelementptr inbounds nuw %struct.lua_State, ptr %4, i32 0, i32 5
  %6 = getelementptr inbounds nuw %struct.MRef, ptr %5, i32 0, i32 0
  %7 = load i64, ptr %6, align 8, !tbaa !27
  %8 = inttoptr i64 %7 to ptr
  %9 = getelementptr inbounds nuw %struct.global_State, ptr %8, i32 0, i32 26
  %10 = getelementptr inbounds nuw %struct.MRef, ptr %9, i32 0, i32 0
  %11 = load i64, ptr %10, align 8, !tbaa !61
  %12 = inttoptr i64 %11 to ptr
  store ptr %12, ptr %3, align 8, !tbaa !9
  %13 = load ptr, ptr %2, align 8, !tbaa !4
  %14 = load ptr, ptr %3, align 8, !tbaa !9
  %15 = getelementptr inbounds nuw %struct.CTState, ptr %14, i32 0, i32 3
  store ptr %13, ptr %15, align 8, !tbaa !62
  %16 = load ptr, ptr %3, align 8, !tbaa !9
  call void @llvm.lifetime.end.p0(i64 8, ptr %3) #10
  ret ptr %16
}

; Function Attrs: nounwind uwtable
define internal ptr @ffi_clib_index(ptr noundef %0) #0 {
  %2 = alloca ptr, align 8
  %3 = alloca ptr, align 8
  %4 = alloca ptr, align 8
  store ptr %0, ptr %2, align 8, !tbaa !4
  call void @llvm.lifetime.start.p0(i64 8, ptr %3) #10
  %5 = load ptr, ptr %2, align 8, !tbaa !4
  %6 = getelementptr inbounds nuw %struct.lua_State, ptr %5, i32 0, i32 7
  %7 = load ptr, ptr %6, align 8, !tbaa !37
  store ptr %7, ptr %3, align 8, !tbaa !30
  call void @llvm.lifetime.start.p0(i64 8, ptr %4) #10
  %8 = load ptr, ptr %3, align 8, !tbaa !30
  %9 = load ptr, ptr %2, align 8, !tbaa !4
  %10 = getelementptr inbounds nuw %struct.lua_State, ptr %9, i32 0, i32 8
  %11 = load ptr, ptr %10, align 8, !tbaa !11
  %12 = icmp ult ptr %8, %11
  br i1 %12, label %13, label %29

13:                                               ; preds = %1
  %14 = load ptr, ptr %3, align 8, !tbaa !30
  %15 = load i64, ptr %14, align 8, !tbaa !26
  %16 = ashr i64 %15, 47
  %17 = trunc i64 %16 to i32
  %18 = icmp eq i32 %17, -13
  br i1 %18, label %19, label %29

19:                                               ; preds = %13
  %20 = load ptr, ptr %3, align 8, !tbaa !30
  %21 = getelementptr inbounds nuw %struct.GCRef, ptr %20, i32 0, i32 0
  %22 = load i64, ptr %21, align 8, !tbaa !26
  %23 = and i64 %22, 140737488355327
  %24 = inttoptr i64 %23 to ptr
  %25 = getelementptr inbounds nuw %struct.GCudata, ptr %24, i32 0, i32 3
  %26 = load i8, ptr %25, align 2, !tbaa !26
  %27 = zext i8 %26 to i32
  %28 = icmp eq i32 %27, 2
  br i1 %28, label %31, label %29

29:                                               ; preds = %19, %13, %1
  %30 = load ptr, ptr %2, align 8, !tbaa !4
  call void @lj_err_argt(ptr noundef %30, i32 noundef 1, i32 noundef 7) #11
  unreachable

31:                                               ; preds = %19
  %32 = load ptr, ptr %3, align 8, !tbaa !30
  %33 = getelementptr inbounds nuw %struct.GCRef, ptr %32, i32 0, i32 0
  %34 = load i64, ptr %33, align 8, !tbaa !26
  %35 = and i64 %34, 140737488355327
  %36 = inttoptr i64 %35 to ptr
  %37 = getelementptr inbounds %struct.GCudata, ptr %36, i64 1
  store ptr %37, ptr %4, align 8, !tbaa !84
  %38 = load ptr, ptr %3, align 8, !tbaa !30
  %39 = getelementptr inbounds %union.TValue, ptr %38, i64 1
  %40 = load ptr, ptr %2, align 8, !tbaa !4
  %41 = getelementptr inbounds nuw %struct.lua_State, ptr %40, i32 0, i32 8
  %42 = load ptr, ptr %41, align 8, !tbaa !11
  %43 = icmp ult ptr %39, %42
  br i1 %43, label %44, label %51

44:                                               ; preds = %31
  %45 = load ptr, ptr %3, align 8, !tbaa !30
  %46 = getelementptr inbounds %union.TValue, ptr %45, i64 1
  %47 = load i64, ptr %46, align 8, !tbaa !26
  %48 = ashr i64 %47, 47
  %49 = trunc i64 %48 to i32
  %50 = icmp eq i32 %49, -5
  br i1 %50, label %53, label %51

51:                                               ; preds = %44, %31
  %52 = load ptr, ptr %2, align 8, !tbaa !4
  call void @lj_err_argt(ptr noundef %52, i32 noundef 2, i32 noundef 4) #11
  unreachable

53:                                               ; preds = %44
  %54 = load ptr, ptr %2, align 8, !tbaa !4
  %55 = load ptr, ptr %4, align 8, !tbaa !84
  %56 = load ptr, ptr %3, align 8, !tbaa !30
  %57 = getelementptr inbounds %union.TValue, ptr %56, i64 1
  %58 = getelementptr inbounds nuw %struct.GCRef, ptr %57, i32 0, i32 0
  %59 = load i64, ptr %58, align 8, !tbaa !26
  %60 = and i64 %59, 140737488355327
  %61 = inttoptr i64 %60 to ptr
  %62 = call ptr @lj_clib_index(ptr noundef %54, ptr noundef %55, ptr noundef %61)
  call void @llvm.lifetime.end.p0(i64 8, ptr %4) #10
  call void @llvm.lifetime.end.p0(i64 8, ptr %3) #10
  ret ptr %62
}

; Function Attrs: nounwind uwtable
define internal i32 @lj_cf_ffi_clib___newindex(ptr noundef %0) #0 {
  %2 = alloca i32, align 4
  %3 = alloca ptr, align 8
  %4 = alloca ptr, align 8
  %5 = alloca ptr, align 8
  %6 = alloca ptr, align 8
  %7 = alloca ptr, align 8
  %8 = alloca ptr, align 8
  %9 = alloca i32, align 4
  %10 = alloca i32, align 4
  store ptr %0, ptr %3, align 8, !tbaa !4
  call void @llvm.lifetime.start.p0(i64 8, ptr %4) #10
  %11 = load ptr, ptr %3, align 8, !tbaa !4
  %12 = call ptr @ffi_clib_index(ptr noundef %11)
  store ptr %12, ptr %4, align 8, !tbaa !30
  call void @llvm.lifetime.start.p0(i64 8, ptr %5) #10
  %13 = load ptr, ptr %3, align 8, !tbaa !4
  %14 = getelementptr inbounds nuw %struct.lua_State, ptr %13, i32 0, i32 7
  %15 = load ptr, ptr %14, align 8, !tbaa !37
  %16 = getelementptr inbounds %union.TValue, ptr %15, i64 2
  store ptr %16, ptr %5, align 8, !tbaa !30
  %17 = load ptr, ptr %5, align 8, !tbaa !30
  %18 = load ptr, ptr %3, align 8, !tbaa !4
  %19 = getelementptr inbounds nuw %struct.lua_State, ptr %18, i32 0, i32 8
  %20 = load ptr, ptr %19, align 8, !tbaa !11
  %21 = icmp ult ptr %17, %20
  br i1 %21, label %22, label %95

22:                                               ; preds = %1
  %23 = load ptr, ptr %4, align 8, !tbaa !30
  %24 = load i64, ptr %23, align 8, !tbaa !26
  %25 = ashr i64 %24, 47
  %26 = trunc i64 %25 to i32
  %27 = icmp eq i32 %26, -11
  br i1 %27, label %28, label %95

28:                                               ; preds = %22
  call void @llvm.lifetime.start.p0(i64 8, ptr %6) #10
  %29 = load ptr, ptr %3, align 8, !tbaa !4
  %30 = call ptr @ctype_cts(ptr noundef %29)
  store ptr %30, ptr %6, align 8, !tbaa !9
  call void @llvm.lifetime.start.p0(i64 8, ptr %7) #10
  %31 = load ptr, ptr %4, align 8, !tbaa !30
  %32 = getelementptr inbounds nuw %struct.GCRef, ptr %31, i32 0, i32 0
  %33 = load i64, ptr %32, align 8, !tbaa !26
  %34 = and i64 %33, 140737488355327
  %35 = inttoptr i64 %34 to ptr
  store ptr %35, ptr %7, align 8, !tbaa !50
  call void @llvm.lifetime.start.p0(i64 8, ptr %8) #10
  %36 = load ptr, ptr %6, align 8, !tbaa !9
  %37 = load ptr, ptr %7, align 8, !tbaa !50
  %38 = getelementptr inbounds nuw %struct.GCcdata, ptr %37, i32 0, i32 3
  %39 = load i16, ptr %38, align 2, !tbaa !52
  %40 = zext i16 %39 to i32
  %41 = call ptr @ctype_get(ptr noundef %36, i32 noundef %40)
  store ptr %41, ptr %8, align 8, !tbaa !38
  %42 = load ptr, ptr %8, align 8, !tbaa !38
  %43 = getelementptr inbounds nuw %struct.CType, ptr %42, i32 0, i32 0
  %44 = load i32, ptr %43, align 8, !tbaa !55
  %45 = lshr i32 %44, 28
  %46 = icmp eq i32 %45, 12
  br i1 %46, label %47, label %91

47:                                               ; preds = %28
  call void @llvm.lifetime.start.p0(i64 4, ptr %9) #10
  store i32 0, ptr %9, align 4, !tbaa !34
  br label %48

48:                                               ; preds = %71, %47
  %49 = load ptr, ptr %6, align 8, !tbaa !9
  %50 = load ptr, ptr %8, align 8, !tbaa !38
  %51 = call ptr @ctype_child(ptr noundef %49, ptr noundef %50)
  store ptr %51, ptr %8, align 8, !tbaa !38
  %52 = load ptr, ptr %8, align 8, !tbaa !38
  %53 = getelementptr inbounds nuw %struct.CType, ptr %52, i32 0, i32 0
  %54 = load i32, ptr %53, align 8, !tbaa !55
  %55 = lshr i32 %54, 28
  %56 = icmp eq i32 %55, 8
  br i1 %56, label %58, label %57

57:                                               ; preds = %48
  br label %72

58:                                               ; preds = %48
  %59 = load ptr, ptr %8, align 8, !tbaa !38
  %60 = getelementptr inbounds nuw %struct.CType, ptr %59, i32 0, i32 0
  %61 = load i32, ptr %60, align 8, !tbaa !55
  %62 = lshr i32 %61, 16
  %63 = and i32 %62, 255
  %64 = icmp eq i32 %63, 1
  br i1 %64, label %65, label %71

65:                                               ; preds = %58
  %66 = load ptr, ptr %8, align 8, !tbaa !38
  %67 = getelementptr inbounds nuw %struct.CType, ptr %66, i32 0, i32 1
  %68 = load i32, ptr %67, align 4, !tbaa !58
  %69 = load i32, ptr %9, align 4, !tbaa !34
  %70 = or i32 %69, %68
  store i32 %70, ptr %9, align 4, !tbaa !34
  br label %71

71:                                               ; preds = %65, %58
  br label %48

72:                                               ; preds = %57
  %73 = load ptr, ptr %8, align 8, !tbaa !38
  %74 = getelementptr inbounds nuw %struct.CType, ptr %73, i32 0, i32 0
  %75 = load i32, ptr %74, align 8, !tbaa !55
  %76 = load i32, ptr %9, align 4, !tbaa !34
  %77 = or i32 %75, %76
  %78 = and i32 %77, 33554432
  %79 = icmp ne i32 %78, 0
  br i1 %79, label %87, label %80

80:                                               ; preds = %72
  %81 = load ptr, ptr %6, align 8, !tbaa !9
  %82 = load ptr, ptr %8, align 8, !tbaa !38
  %83 = load ptr, ptr %7, align 8, !tbaa !50
  %84 = getelementptr inbounds %struct.GCcdata, ptr %83, i64 1
  %85 = load ptr, ptr %84, align 8, !tbaa !57
  %86 = load ptr, ptr %5, align 8, !tbaa !30
  call void @lj_cconv_ct_tv(ptr noundef %81, ptr noundef %82, ptr noundef %85, ptr noundef %86, i32 noundef 0)
  store i32 0, ptr %2, align 4
  store i32 1, ptr %10, align 4
  br label %88

87:                                               ; preds = %72
  store i32 0, ptr %10, align 4
  br label %88

88:                                               ; preds = %87, %80
  call void @llvm.lifetime.end.p0(i64 4, ptr %9) #10
  %89 = load i32, ptr %10, align 4
  switch i32 %89, label %92 [
    i32 0, label %90
  ]

90:                                               ; preds = %88
  br label %91

91:                                               ; preds = %90, %28
  store i32 0, ptr %10, align 4
  br label %92

92:                                               ; preds = %91, %88
  call void @llvm.lifetime.end.p0(i64 8, ptr %8) #10
  call void @llvm.lifetime.end.p0(i64 8, ptr %7) #10
  call void @llvm.lifetime.end.p0(i64 8, ptr %6) #10
  %93 = load i32, ptr %10, align 4
  switch i32 %93, label %97 [
    i32 0, label %94
  ]

94:                                               ; preds = %92
  br label %95

95:                                               ; preds = %94, %22, %1
  %96 = load ptr, ptr %3, align 8, !tbaa !4
  call void @lj_err_caller(ptr noundef %96, i32 noundef 3594) #11
  unreachable

97:                                               ; preds = %92
  call void @llvm.lifetime.end.p0(i64 8, ptr %5) #10
  call void @llvm.lifetime.end.p0(i64 8, ptr %4) #10
  %98 = load i32, ptr %2, align 4
  ret i32 %98
}