; Function Attrs: nounwind uwtable
define internal noundef i32 @lj_cf_ffi_clib___newindex(ptr noundef %0) #0 {
  %2 = getelementptr inbounds nuw i8, ptr %0, i64 32
  %3 = load ptr, ptr %2, align 8, !tbaa !44
  %4 = getelementptr inbounds nuw i8, ptr %0, i64 40
  %5 = load ptr, ptr %4, align 8, !tbaa !4
  %6 = icmp ult ptr %3, %5
  br i1 %6, label %7, label %16

7:                                                ; preds = %1
  %8 = load i64, ptr %3, align 8, !tbaa !23
  %.mask.i = and i64 %8, -140737488355328
  %9 = icmp eq i64 %.mask.i, -1829587348619264
  br i1 %9, label %10, label %16

10:                                               ; preds = %7
  %11 = and i64 %8, 140737488355327
  %12 = inttoptr i64 %11 to ptr
  %13 = getelementptr inbounds nuw i8, ptr %12, i64 10
  %14 = load i8, ptr %13, align 2, !tbaa !23
  %15 = icmp eq i8 %14, 2
  br i1 %15, label %17, label %16

16:                                               ; preds = %10, %7, %1
  tail call void @lj_err_argt(ptr noundef nonnull %0, i32 noundef 1, i32 noundef 7) #10
  unreachable

17:                                               ; preds = %10
  %18 = getelementptr inbounds nuw i8, ptr %3, i64 8
  %19 = icmp ult ptr %18, %5
  br i1 %19, label %20, label %23

20:                                               ; preds = %17
  %21 = load i64, ptr %18, align 8, !tbaa !23
  %.mask16.i = and i64 %21, -140737488355328
  %22 = icmp eq i64 %.mask16.i, -703687441776640
  br i1 %22, label %ffi_clib_index.exit, label %23

23:                                               ; preds = %20, %17
  tail call void @lj_err_argt(ptr noundef nonnull %0, i32 noundef 2, i32 noundef 4) #10
  unreachable

ffi_clib_index.exit:                              ; preds = %20
  %24 = getelementptr inbounds nuw i8, ptr %12, i64 48
  %25 = and i64 %21, 140737488355327
  %26 = inttoptr i64 %25 to ptr
  %27 = tail call ptr @lj_clib_index(ptr noundef nonnull %0, ptr noundef nonnull %24, ptr noundef %26) #9
  %28 = load ptr, ptr %2, align 8, !tbaa !44
  %29 = getelementptr inbounds nuw i8, ptr %28, i64 16
  %30 = load ptr, ptr %4, align 8, !tbaa !4
  %31 = icmp ult ptr %29, %30
  br i1 %31, label %32, label %.critedge33

32:                                               ; preds = %ffi_clib_index.exit
  %33 = load i64, ptr %27, align 8, !tbaa !23
  %.mask = and i64 %33, -140737488355328
  %34 = icmp eq i64 %.mask, -1548112371908608
  br i1 %34, label %35, label %.critedge33

35:                                               ; preds = %32
  %36 = getelementptr inbounds nuw i8, ptr %0, i64 16
  %37 = load i64, ptr %36, align 8, !tbaa !24
  %38 = inttoptr i64 %37 to ptr
  %39 = getelementptr inbounds nuw i8, ptr %38, i64 384
  %40 = load i64, ptr %39, align 8, !tbaa !41
  %41 = inttoptr i64 %40 to ptr
  %42 = getelementptr inbounds nuw i8, ptr %41, i64 16
  store ptr %0, ptr %42, align 8, !tbaa !42
  %43 = load i64, ptr %27, align 8, !tbaa !23
  %44 = and i64 %43, 140737488355327
  %45 = inttoptr i64 %44 to ptr
  %46 = getelementptr inbounds nuw i8, ptr %45, i64 10
  %47 = load i16, ptr %46, align 2, !tbaa !48
  %48 = load ptr, ptr %41, align 8, !tbaa !51
  %49 = zext i16 %47 to i64
  %50 = getelementptr inbounds nuw %struct.CType, ptr %48, i64 %49
  %51 = load i32, ptr %50, align 8, !tbaa !52
  %.mask30 = and i32 %51, -268435456
  %52 = icmp eq i32 %.mask30, -1073741824
  br i1 %52, label %.preheader, label %.critedge33

.preheader:                                       ; preds = %35
  %53 = and i32 %51, 65535
  %54 = zext nneg i32 %53 to i64
  %55 = getelementptr inbounds nuw %struct.CType, ptr %48, i64 %54
  %56 = load i32, ptr %55, align 8, !tbaa !52
  %57 = icmp slt i32 %56, -1879048192
  br i1 %57, label %.lr.ph, label %._crit_edge

.lr.ph:                                           ; preds = %.preheader, %66
  %58 = phi i32 [ %70, %66 ], [ %56, %.preheader ]
  %59 = phi i64 [ %68, %66 ], [ %54, %.preheader ]
  %.02635 = phi i32 [ %.127, %66 ], [ 0, %.preheader ]
  %60 = and i32 %58, 16711680
  %61 = icmp eq i32 %60, 65536
  br i1 %61, label %62, label %66

62:                                               ; preds = %.lr.ph
  %63 = getelementptr inbounds nuw %struct.CType, ptr %48, i64 %59, i32 1
  %64 = load i32, ptr %63, align 4, !tbaa !58
  %65 = or i32 %64, %.02635
  br label %66

66:                                               ; preds = %62, %.lr.ph
  %.127 = phi i32 [ %65, %62 ], [ %.02635, %.lr.ph ]
  %67 = and i32 %58, 65535
  %68 = zext nneg i32 %67 to i64
  %69 = getelementptr inbounds nuw %struct.CType, ptr %48, i64 %68
  %70 = load i32, ptr %69, align 8, !tbaa !52
  %71 = icmp slt i32 %70, -1879048192
  br i1 %71, label %.lr.ph, label %._crit_edge

._crit_edge:                                      ; preds = %66, %.preheader
  %.026.lcssa = phi i32 [ 0, %.preheader ], [ %.127, %66 ]
  %.lcssa34 = phi ptr [ %55, %.preheader ], [ %69, %66 ]
  %.lcssa = phi i32 [ %56, %.preheader ], [ %70, %66 ]
  %72 = or i32 %.lcssa, %.026.lcssa
  %73 = and i32 %72, 33554432
  %.not.not = icmp eq i32 %73, 0
  br i1 %.not.not, label %74, label %.critedge33

74:                                               ; preds = %._crit_edge
  %75 = getelementptr inbounds nuw i8, ptr %45, i64 16
  %76 = load ptr, ptr %75, align 8, !tbaa !56
  tail call void @lj_cconv_ct_tv(ptr noundef nonnull %41, ptr noundef nonnull %.lcssa34, ptr noundef %76, ptr noundef nonnull %29, i32 noundef 0) #9
  ret i32 0

.critedge33:                                      ; preds = %35, %._crit_edge, %32, %ffi_clib_index.exit
  tail call void @lj_err_caller(ptr noundef nonnull %0, i32 noundef 3594) #10
  unreachable
}